; Function Attrs: nounwind uwtable
define dso_local void @blockForReplication(ptr noundef initializes((488, 496), (512, 516), (520, 528)) %0, i64 noundef %1, i64 noundef %2, i64 noundef %3) local_unnamed_addr #0 {
  %5 = getelementptr inbounds nuw i8, ptr %0, i64 488
  store i64 %1, ptr %5, align 8, !tbaa !28
  %6 = getelementptr inbounds nuw i8, ptr %0, i64 520
  store i64 %2, ptr %6, align 8, !tbaa !31
  %7 = trunc i64 %3 to i32
  %8 = getelementptr inbounds nuw i8, ptr %0, i64 512
  store i32 %7, ptr %8, align 8, !tbaa !30
  %9 = load ptr, ptr getelementptr inbounds nuw (i8, ptr @server, i64 7504), align 8, !tbaa !108
  %10 = tail call ptr @listAddNodeHead(ptr noundef %9, ptr noundef %0) #5
  %11 = getelementptr inbounds nuw i8, ptr %0, i64 8
  %12 = load i64, ptr %11, align 8, !tbaa !34
  %.fr16.i = freeze i64 %12
  %13 = and i64 %.fr16.i, 2
  %14 = icmp eq i64 %13, 0
  br i1 %14, label %15, label %switch.early.test.i

switch.early.test.i:                              ; preds = %4
  tail call void @_serverAssert(ptr noundef nonnull @.str, ptr noundef nonnull @.str.1, i32 noundef 72) #5
  tail call void @abort() #6
  unreachable

15:                                               ; preds = %4
  %16 = or i64 %.fr16.i, 16
  store i64 %16, ptr %11, align 8, !tbaa !34
  %17 = getelementptr inbounds nuw i8, ptr %0, i64 480
  store i32 2, ptr %17, align 8, !tbaa !5
  %18 = and i64 %.fr16.i, 134217728
  %.not.i = icmp eq i64 %18, 0
  br i1 %.not.i, label %19, label %blockClient.exit

19:                                               ; preds = %15
  %20 = load i32, ptr getelementptr inbounds nuw (i8, ptr @server, i64 7588), align 4, !tbaa !35
  %21 = add i32 %20, 1
  store i32 %21, ptr getelementptr inbounds nuw (i8, ptr @server, i64 7588), align 4, !tbaa !35
  br label %blockClient.exit

blockClient.exit:                                 ; preds = %15, %19
  %22 = load i32, ptr getelementptr inbounds nuw (i8, ptr @server, i64 7600), align 8, !tbaa !56
  %23 = add i32 %22, 1
  store i32 %23, ptr getelementptr inbounds nuw (i8, ptr @server, i64 7600), align 8, !tbaa !56
  tail call void @addClientToTimeoutTable(ptr noundef nonnull %0) #5
  ret void
}